target datalayout = "e-m:e-p270:32:32-p271:32:32-p272:64:64-i64:64-i128:128-f80:128-n8:16:32:64-S128"
target triple = "x86_64-pc-linux-gnu"

@enable_error_stack = external global i32, align 4
@H5tools_ERR_STACK_g = external global i64, align 8
@H5tools_ERR_CLS_g = external global i64, align 8
@.str.78 = private unnamed_addr constant [111 x i8] c"generated/home/dtcxzyw/WorkSpace/Projects/compilers/llvm-opt-benchmark/bench/hdf5/hdf5/tools/lib/h5diff_util.c\00", align 1
@__func__.match_up_memsize = private unnamed_addr constant [17 x i8] c"match_up_memsize\00", align 1
@H5E_tools_g = external global i64, align 8
@H5E_tools_min_id_g = external global i64, align 8
@.str.79 = private unnamed_addr constant [26 x i8] c"H5Tget_native_type failed\00", align 1
@stderr = external global ptr, align 8
@.str.80 = private unnamed_addr constant [2 x i8] c"\0A\00", align 1
@.str.81 = private unnamed_addr constant [33 x i8] c"native type sizes do not compare\00", align 1

; Function Attrs: nounwind uwtable
define i32 @match_up_memsize(i64 noundef %0, i64 noundef %1, ptr noundef %2, ptr noundef %3, ptr noundef %4, ptr noundef %5) #0 {
  %7 = alloca i64, align 8
  %8 = alloca i64, align 8
  %9 = alloca ptr, align 8
  %10 = alloca ptr, align 8
  %11 = alloca ptr, align 8
  %12 = alloca ptr, align 8
  %13 = alloca i32, align 4
  store i64 %0, ptr %7, align 8, !tbaa !10
  store i64 %1, ptr %8, align 8, !tbaa !10
  store ptr %2, ptr %9, align 8, !tbaa !7
  store ptr %3, ptr %10, align 8, !tbaa !7
  store ptr %4, ptr %11, align 8, !tbaa !7
  store ptr %5, ptr %12, align 8, !tbaa !7
  call void @llvm.lifetime.start.p0(i64 4, ptr %13) #7
  store i32 0, ptr %13, align 4, !tbaa !3
  br label %14

14:                                               ; preds = %6
  br label %15

15:                                               ; preds = %14
  br label %16

16:                                               ; preds = %15
  %17 = load ptr, ptr %11, align 8, !tbaa !7
  %18 = load i64, ptr %17, align 8, !tbaa !10
  %19 = load ptr, ptr %12, align 8, !tbaa !7
  %20 = load i64, ptr %19, align 8, !tbaa !10
  %21 = icmp ne i64 %18, %20
  br i1 %21, label %22, label %117

22:                                               ; preds = %16
  %23 = load ptr, ptr %11, align 8, !tbaa !7
  %24 = load i64, ptr %23, align 8, !tbaa !10
  %25 = load ptr, ptr %12, align 8, !tbaa !7
  %26 = load i64, ptr %25, align 8, !tbaa !10
  %27 = icmp ult i64 %24, %26
  br i1 %27, label %28, label %72

28:                                               ; preds = %22
  %29 = load ptr, ptr %9, align 8, !tbaa !7
  %30 = load i64, ptr %29, align 8, !tbaa !10
  %31 = call i32 @H5Tclose(i64 noundef %30)
  %32 = load i64, ptr %8, align 8, !tbaa !10
  %33 = call i64 @H5Tget_native_type(i64 noundef %32, i32 noundef 0)
  %34 = load ptr, ptr %9, align 8, !tbaa !7
  store i64 %33, ptr %34, align 8, !tbaa !10
  %35 = icmp slt i64 %33, 0
  br i1 %35, label %36, label %67

36:                                               ; preds = %28
  br label %37

37:                                               ; preds = %36
  br label %38

38:                                               ; preds = %37
  %39 = load i32, ptr @enable_error_stack, align 4, !tbaa !3
  %40 = icmp sgt i32 %39, 0
  br i1 %40, label %41, label %59

41:                                               ; preds = %38
  %42 = load i64, ptr @H5tools_ERR_STACK_g, align 8, !tbaa !10
  %43 = icmp sge i64 %42, 0
  br i1 %43, label %44, label %53

44:                                               ; preds = %41
  %45 = load i64, ptr @H5tools_ERR_CLS_g, align 8, !tbaa !10
  %46 = icmp sge i64 %45, 0
  br i1 %46, label %47, label %53

47:                                               ; preds = %44
  %48 = load i64, ptr @H5tools_ERR_STACK_g, align 8, !tbaa !10
  %49 = load i64, ptr @H5tools_ERR_CLS_g, align 8, !tbaa !10
  %50 = load i64, ptr @H5E_tools_g, align 8, !tbaa !10
  %51 = load i64, ptr @H5E_tools_min_id_g, align 8, !tbaa !10
  %52 = call i32 (i64, ptr, ptr, i32, i64, i64, i64, ptr, ...) @H5Epush2(i64 noundef %48, ptr noundef @.str.78, ptr noundef @__func__.match_up_memsize, i32 noundef 357, i64 noundef %49, i64 noundef %50, i64 noundef %51, ptr noundef @.str.79)
  br label %58

53:                                               ; preds = %44, %41
  %54 = load ptr, ptr @stderr, align 8, !tbaa !19
  %55 = call i32 (ptr, ptr, ...) @fprintf(ptr noundef %54, ptr noundef @.str.79) #7
  %56 = load ptr, ptr @stderr, align 8, !tbaa !19
  %57 = call i32 (ptr, ptr, ...) @fprintf(ptr noundef %56, ptr noundef @.str.80) #7
  br label %58

58:                                               ; preds = %53, %47
  br label %59

59:                                               ; preds = %58, %38
  br label %60

60:                                               ; preds = %59
  br label %61

61:                                               ; preds = %60
  br label %62

62:                                               ; preds = %61
  store i32 -1, ptr %13, align 4, !tbaa !3
  br label %155

63:                                               ; No predecessors!
  br label %64

64:                                               ; preds = %63
  br label %65

65:                                               ; preds = %64
  br label %66

66:                                               ; preds = %65
  br label %67

67:                                               ; preds = %66, %28
  %68 = load ptr, ptr %9, align 8, !tbaa !7
  %69 = load i64, ptr %68, align 8, !tbaa !10
  %70 = call i64 @H5Tget_size(i64 noundef %69)
  %71 = load ptr, ptr %11, align 8, !tbaa !7
  store i64 %70, ptr %71, align 8, !tbaa !10
  br label %116

72:                                               ; preds = %22
  %73 = load ptr, ptr %10, align 8, !tbaa !7
  %74 = load i64, ptr %73, align 8, !tbaa !10
  %75 = call i32 @H5Tclose(i64 noundef %74)
  %76 = load i64, ptr %7, align 8, !tbaa !10
  %77 = call i64 @H5Tget_native_type(i64 noundef %76, i32 noundef 0)
  %78 = load ptr, ptr %10, align 8, !tbaa !7
  store i64 %77, ptr %78, align 8, !tbaa !10
  %79 = icmp slt i64 %77, 0
  br i1 %79, label %80, label %111

80:                                               ; preds = %72
  br label %81

81:                                               ; preds = %80
  br label %82

82:                                               ; preds = %81
  %83 = load i32, ptr @enable_error_stack, align 4, !tbaa !3
  %84 = icmp sgt i32 %83, 0
  br i1 %84, label %85, label %103

85:                                               ; preds = %82
  %86 = load i64, ptr @H5tools_ERR_STACK_g, align 8, !tbaa !10
  %87 = icmp sge i64 %86, 0
  br i1 %87, label %88, label %97

88:                                               ; preds = %85
  %89 = load i64, ptr @H5tools_ERR_CLS_g, align 8, !tbaa !10
  %90 = icmp sge i64 %89, 0
  br i1 %90, label %91, label %97

91:                                               ; preds = %88
  %92 = load i64, ptr @H5tools_ERR_STACK_g, align 8, !tbaa !10
  %93 = load i64, ptr @H5tools_ERR_CLS_g, align 8, !tbaa !10
  %94 = load i64, ptr @H5E_tools_g, align 8, !tbaa !10
  %95 = load i64, ptr @H5E_tools_min_id_g, align 8, !tbaa !10
  %96 = call i32 (i64, ptr, ptr, i32, i64, i64, i64, ptr, ...) @H5Epush2(i64 noundef %92, ptr noundef @.str.78, ptr noundef @__func__.match_up_memsize, i32 noundef 365, i64 noundef %93, i64 noundef %94, i64 noundef %95, ptr noundef @.str.79)
  br label %102

97:                                               ; preds = %88, %85
  %98 = load ptr, ptr @stderr, align 8, !tbaa !19
  %99 = call i32 (ptr, ptr, ...) @fprintf(ptr noundef %98, ptr noundef @.str.79) #7
  %100 = load ptr, ptr @stderr, align 8, !tbaa !19
  %101 = call i32 (ptr, ptr, ...) @fprintf(ptr noundef %100, ptr noundef @.str.80) #7
  br label %102

102:                                              ; preds = %97, %91
  br label %103

103:                                              ; preds = %102, %82
  br label %104

104:                                              ; preds = %103
  br label %105

105:                                              ; preds = %104
  br label %106

106:                                              ; preds = %105
  store i32 -1, ptr %13, align 4, !tbaa !3
  br label %155

107:                                              ; No predecessors!
  br label %108

108:                                              ; preds = %107
  br label %109

109:                                              ; preds = %108
  br label %110

110:                                              ; preds = %109
  br label %111

111:                                              ; preds = %110, %72
  %112 = load ptr, ptr %10, align 8, !tbaa !7
  %113 = load i64, ptr %112, align 8, !tbaa !10
  %114 = call i64 @H5Tget_size(i64 noundef %113)
  %115 = load ptr, ptr %12, align 8, !tbaa !7
  store i64 %114, ptr %115, align 8, !tbaa !10
  br label %116

116:                                              ; preds = %111, %67
  br label %117

117:                                              ; preds = %116, %16
  %118 = load ptr, ptr %11, align 8, !tbaa !7
  %119 = load i64, ptr %118, align 8, !tbaa !10
  %120 = load ptr, ptr %12, align 8, !tbaa !7
  %121 = load i64, ptr %120, align 8, !tbaa !10
  %122 = icmp ne i64 %119, %121
  br i1 %122, label %123, label %154

123:                                              ; preds = %117
  br label %124

124:                                              ; preds = %123
  br label %125

125:                                              ; preds = %124
  %126 = load i32, ptr @enable_error_stack, align 4, !tbaa !3
  %127 = icmp sgt i32 %126, 0
  br i1 %127, label %128, label %146

128:                                              ; preds = %125
  %129 = load i64, ptr @H5tools_ERR_STACK_g, align 8, !tbaa !10
  %130 = icmp sge i64 %129, 0
  br i1 %130, label %131, label %140

131:                                              ; preds = %128
  %132 = load i64, ptr @H5tools_ERR_CLS_g, align 8, !tbaa !10
  %133 = icmp sge i64 %132, 0
  br i1 %133, label %134, label %140

134:                                              ; preds = %131
  %135 = load i64, ptr @H5tools_ERR_STACK_g, align 8, !tbaa !10
  %136 = load i64, ptr @H5tools_ERR_CLS_g, align 8, !tbaa !10
  %137 = load i64, ptr @H5E_tools_g, align 8, !tbaa !10
  %138 = load i64, ptr @H5E_tools_min_id_g, align 8, !tbaa !10
  %139 = call i32 (i64, ptr, ptr, i32, i64, i64, i64, ptr, ...) @H5Epush2(i64 noundef %135, ptr noundef @.str.78, ptr noundef @__func__.match_up_memsize, i32 noundef 371, i64 noundef %136, i64 noundef %137, i64 noundef %138, ptr noundef @.str.81)
  br label %145

140:                                              ; preds = %131, %128
  %141 = load ptr, ptr @stderr, align 8, !tbaa !19
  %142 = call i32 (ptr, ptr, ...) @fprintf(ptr noundef %141, ptr noundef @.str.81) #7
  %143 = load ptr, ptr @stderr, align 8, !tbaa !19
  %144 = call i32 (ptr, ptr, ...) @fprintf(ptr noundef %143, ptr noundef @.str.80) #7
  br label %145

145:                                              ; preds = %140, %134
  br label %146

146:                                              ; preds = %145, %125
  br label %147

147:                                              ; preds = %146
  br label %148

148:                                              ; preds = %147
  br label %149

149:                                              ; preds = %148
  store i32 -1, ptr %13, align 4, !tbaa !3
  br label %155

150:                                              ; No predecessors!
  br label %151

151:                                              ; preds = %150
  br label %152

152:                                              ; preds = %151
  br label %153

153:                                              ; preds = %152
  br label %154

154:                                              ; preds = %153, %117
  br label %155

155:                                              ; preds = %154, %149, %106, %62
  br label %156

156:                                              ; preds = %155
  br label %157

157:                                              ; preds = %156
  br label %158

158:                                              ; preds = %157
  %159 = load i32, ptr %13, align 4, !tbaa !3
  call void @llvm.lifetime.end.p0(i64 4, ptr %13) #7
  ret i32 %159
}