; Function Attrs: nounwind uwtable
define range(i32 -1, 1) i32 @match_up_memsize(i64 noundef %0, i64 noundef %1, ptr noundef captures(none) %2, ptr noundef captures(none) %3, ptr noundef captures(none) %4, ptr noundef captures(none) %5) local_unnamed_addr #0 {
  %7 = load i64, ptr %4, align 8, !tbaa !3
  %8 = load i64, ptr %5, align 8, !tbaa !3
  %.not = icmp eq i64 %7, %8
  br i1 %.not, label %.thread, label %9

9:                                                ; preds = %6
  %10 = icmp ult i64 %7, %8
  br i1 %10, label %11, label %34

11:                                               ; preds = %9
  %12 = load i64, ptr %2, align 8, !tbaa !3
  %13 = tail call i32 @H5Tclose(i64 noundef %12) #7
  %14 = tail call i64 @H5Tget_native_type(i64 noundef %1, i32 noundef 0) #7
  store i64 %14, ptr %2, align 8, !tbaa !3
  %15 = icmp slt i64 %14, 0
  br i1 %15, label %16, label %32

16:                                               ; preds = %11
  %17 = load i32, ptr @enable_error_stack, align 4, !tbaa !15
  %18 = icmp sgt i32 %17, 0
  br i1 %18, label %19, label %.thread

19:                                               ; preds = %16
  %20 = load i64, ptr @H5tools_ERR_STACK_g, align 8, !tbaa !3
  %21 = icmp sgt i64 %20, -1
  %22 = load i64, ptr @H5tools_ERR_CLS_g, align 8
  %23 = icmp sgt i64 %22, -1
  %or.cond = select i1 %21, i1 %23, i1 false
  br i1 %or.cond, label %24, label %28

24:                                               ; preds = %19
  %25 = load i64, ptr @H5E_tools_g, align 8, !tbaa !3
  %26 = load i64, ptr @H5E_tools_min_id_g, align 8, !tbaa !3
  %27 = tail call i32 (i64, ptr, ptr, i32, i64, i64, i64, ptr, ...) @H5Epush2(i64 noundef %20, ptr noundef nonnull @.str.78, ptr noundef nonnull @__func__.match_up_memsize, i32 noundef 357, i64 noundef %22, i64 noundef %25, i64 noundef %26, ptr noundef nonnull @.str.79) #7
  br label %.thread

28:                                               ; preds = %19
  %29 = load ptr, ptr @stderr, align 8, !tbaa !12
  %30 = tail call i64 @fwrite(ptr nonnull @.str.79, i64 25, i64 1, ptr %29) #9
  %31 = load ptr, ptr @stderr, align 8, !tbaa !12
  %fputc33 = tail call i32 @fputc(i32 10, ptr %31)
  br label %.thread

32:                                               ; preds = %11
  %33 = tail call i64 @H5Tget_size(i64 noundef %14) #7
  store i64 %33, ptr %4, align 8, !tbaa !3
  %.pre34 = load i64, ptr %5, align 8, !tbaa !3
  br label %57

34:                                               ; preds = %9
  %35 = load i64, ptr %3, align 8, !tbaa !3
  %36 = tail call i32 @H5Tclose(i64 noundef %35) #7
  %37 = tail call i64 @H5Tget_native_type(i64 noundef %0, i32 noundef 0) #7
  store i64 %37, ptr %3, align 8, !tbaa !3
  %38 = icmp slt i64 %37, 0
  br i1 %38, label %39, label %55

39:                                               ; preds = %34
  %40 = load i32, ptr @enable_error_stack, align 4, !tbaa !15
  %41 = icmp sgt i32 %40, 0
  br i1 %41, label %42, label %.thread

42:                                               ; preds = %39
  %43 = load i64, ptr @H5tools_ERR_STACK_g, align 8, !tbaa !3
  %44 = icmp sgt i64 %43, -1
  %45 = load i64, ptr @H5tools_ERR_CLS_g, align 8
  %46 = icmp sgt i64 %45, -1
  %or.cond3 = select i1 %44, i1 %46, i1 false
  br i1 %or.cond3, label %47, label %51

47:                                               ; preds = %42
  %48 = load i64, ptr @H5E_tools_g, align 8, !tbaa !3
  %49 = load i64, ptr @H5E_tools_min_id_g, align 8, !tbaa !3
  %50 = tail call i32 (i64, ptr, ptr, i32, i64, i64, i64, ptr, ...) @H5Epush2(i64 noundef %43, ptr noundef nonnull @.str.78, ptr noundef nonnull @__func__.match_up_memsize, i32 noundef 365, i64 noundef %45, i64 noundef %48, i64 noundef %49, ptr noundef nonnull @.str.79) #7
  br label %.thread

51:                                               ; preds = %42
  %52 = load ptr, ptr @stderr, align 8, !tbaa !12
  %53 = tail call i64 @fwrite(ptr nonnull @.str.79, i64 25, i64 1, ptr %52) #9
  %54 = load ptr, ptr @stderr, align 8, !tbaa !12
  %fputc = tail call i32 @fputc(i32 10, ptr %54)
  br label %.thread

55:                                               ; preds = %34
  %56 = tail call i64 @H5Tget_size(i64 noundef %37) #7
  store i64 %56, ptr %5, align 8, !tbaa !3
  %.pre = load i64, ptr %4, align 8, !tbaa !3
  br label %57

57:                                               ; preds = %32, %55
  %58 = phi i64 [ %.pre34, %32 ], [ %56, %55 ]
  %59 = phi i64 [ %33, %32 ], [ %.pre, %55 ]
  %.not31 = icmp eq i64 %59, %58
  br i1 %.not31, label %.thread, label %60

60:                                               ; preds = %57
  %61 = load i32, ptr @enable_error_stack, align 4, !tbaa !15
  %62 = icmp sgt i32 %61, 0
  br i1 %62, label %63, label %.thread

63:                                               ; preds = %60
  %64 = load i64, ptr @H5tools_ERR_STACK_g, align 8, !tbaa !3
  %65 = icmp sgt i64 %64, -1
  %66 = load i64, ptr @H5tools_ERR_CLS_g, align 8
  %67 = icmp sgt i64 %66, -1
  %or.cond5 = select i1 %65, i1 %67, i1 false
  br i1 %or.cond5, label %68, label %72

68:                                               ; preds = %63
  %69 = load i64, ptr @H5E_tools_g, align 8, !tbaa !3
  %70 = load i64, ptr @H5E_tools_min_id_g, align 8, !tbaa !3
  %71 = tail call i32 (i64, ptr, ptr, i32, i64, i64, i64, ptr, ...) @H5Epush2(i64 noundef %64, ptr noundef nonnull @.str.78, ptr noundef nonnull @__func__.match_up_memsize, i32 noundef 371, i64 noundef %66, i64 noundef %69, i64 noundef %70, ptr noundef nonnull @.str.81) #7
  br label %.thread

72:                                               ; preds = %63
  %73 = load ptr, ptr @stderr, align 8, !tbaa !12
  %74 = tail call i64 @fwrite(ptr nonnull @.str.81, i64 32, i64 1, ptr %73) #9
  %75 = load ptr, ptr @stderr, align 8, !tbaa !12
  %fputc32 = tail call i32 @fputc(i32 10, ptr %75)
  br label %.thread

.thread:                                          ; preds = %6, %68, %72, %60, %47, %51, %39, %24, %28, %16, %57
  %.0 = phi i32 [ 0, %57 ], [ -1, %16 ], [ -1, %28 ], [ -1, %24 ], [ -1, %39 ], [ -1, %51 ], [ -1, %47 ], [ -1, %60 ], [ -1, %72 ], [ -1, %68 ], [ 0, %6 ]
  ret i32 %.0
}